; Function Attrs: mustprogress nofree norecurse nosync nounwind willreturn memory(read, inaccessiblemem: none) uwtable
define hidden i32 @mbedtls_mpi_cmp_mpi(ptr noundef readonly captures(none) %0, ptr noundef readonly captures(none) %1) local_unnamed_addr #8 {
  %3 = getelementptr inbounds nuw i8, ptr %0, i64 8
  %4 = load i64, ptr %3, align 8, !tbaa !12
  %.not44 = icmp eq i64 %4, 0
  br i1 %.not44, label %._crit_edge, label %.lr.ph

.lr.ph:                                           ; preds = %2
  %5 = getelementptr inbounds nuw i8, ptr %0, i64 16
  %6 = load ptr, ptr %5, align 8, !tbaa !11
  %invariant.gep = getelementptr i8, ptr %6, i64 -8
  br label %7

7:                                                ; preds = %.lr.ph, %9
  %.03545 = phi i64 [ %4, %.lr.ph ], [ %10, %9 ]
  %gep = getelementptr i64, ptr %invariant.gep, i64 %.03545
  %8 = load i64, ptr %gep, align 8, !tbaa !13
  %.not39 = icmp eq i64 %8, 0
  br i1 %.not39, label %9, label %._crit_edge

9:                                                ; preds = %7
  %10 = add i64 %.03545, -1
  %.not = icmp eq i64 %10, 0
  br i1 %.not, label %._crit_edge, label %7, !llvm.loop !28

._crit_edge:                                      ; preds = %9, %7, %2
  %.035.lcssa = phi i64 [ 0, %2 ], [ %.03545, %7 ], [ 0, %9 ]
  %11 = getelementptr inbounds nuw i8, ptr %1, i64 8
  %12 = load i64, ptr %11, align 8, !tbaa !12
  %.not4048 = icmp eq i64 %12, 0
  br i1 %.not4048, label %._crit_edge52, label %.lr.ph51

.lr.ph51:                                         ; preds = %._crit_edge
  %13 = getelementptr inbounds nuw i8, ptr %1, i64 16
  %14 = load ptr, ptr %13, align 8, !tbaa !11
  %invariant.gep56 = getelementptr i8, ptr %14, i64 -8
  br label %15

15:                                               ; preds = %.lr.ph51, %17
  %.049 = phi i64 [ %12, %.lr.ph51 ], [ %18, %17 ]
  %gep57 = getelementptr i64, ptr %invariant.gep56, i64 %.049
  %16 = load i64, ptr %gep57, align 8, !tbaa !13
  %.not41 = icmp eq i64 %16, 0
  br i1 %.not41, label %17, label %._crit_edge52

17:                                               ; preds = %15
  %18 = add i64 %.049, -1
  %.not40 = icmp eq i64 %18, 0
  br i1 %.not40, label %._crit_edge52, label %15, !llvm.loop !44

._crit_edge52:                                    ; preds = %17, %15, %._crit_edge
  %.0.lcssa = phi i64 [ 0, %._crit_edge ], [ %.049, %15 ], [ 0, %17 ]
  %19 = or i64 %.0.lcssa, %.035.lcssa
  %or.cond = icmp eq i64 %19, 0
  br i1 %or.cond, label %.loopexit, label %20

20:                                               ; preds = %._crit_edge52
  %21 = icmp ugt i64 %.035.lcssa, %.0.lcssa
  br i1 %21, label %22, label %24

22:                                               ; preds = %20
  %23 = load i32, ptr %0, align 8, !tbaa !3
  br label %.loopexit

24:                                               ; preds = %20
  %25 = icmp ugt i64 %.0.lcssa, %.035.lcssa
  br i1 %25, label %26, label %29

26:                                               ; preds = %24
  %27 = load i32, ptr %1, align 8, !tbaa !3
  %28 = sub nsw i32 0, %27
  br label %.loopexit

29:                                               ; preds = %24
  %30 = load i32, ptr %0, align 8, !tbaa !3
  %31 = icmp sgt i32 %30, 0
  %32 = load i32, ptr %1, align 8, !tbaa !3
  br i1 %31, label %33, label %35

33:                                               ; preds = %29
  %34 = icmp slt i32 %32, 0
  br i1 %34, label %.loopexit, label %.preheader

35:                                               ; preds = %29
  %36 = icmp sgt i32 %32, 0
  %37 = icmp ne i32 %30, 0
  %or.cond43 = and i1 %37, %36
  br i1 %or.cond43, label %.loopexit, label %.preheader

.preheader:                                       ; preds = %33, %35
  %38 = getelementptr inbounds nuw i8, ptr %0, i64 16
  %39 = getelementptr inbounds nuw i8, ptr %1, i64 16
  br label %40

40:                                               ; preds = %.preheader, %50
  %.1 = phi i64 [ %43, %50 ], [ %.035.lcssa, %.preheader ]
  %.not42 = icmp eq i64 %.1, 0
  br i1 %.not42, label %.loopexit, label %41

41:                                               ; preds = %40
  %42 = load ptr, ptr %38, align 8, !tbaa !11
  %43 = add i64 %.1, -1
  %44 = getelementptr inbounds nuw i64, ptr %42, i64 %43
  %45 = load i64, ptr %44, align 8, !tbaa !13
  %46 = load ptr, ptr %39, align 8, !tbaa !11
  %47 = getelementptr inbounds nuw i64, ptr %46, i64 %43
  %48 = load i64, ptr %47, align 8, !tbaa !13
  %49 = icmp ugt i64 %45, %48
  br i1 %49, label %.loopexit, label %50

50:                                               ; preds = %41
  %51 = icmp ult i64 %45, %48
  br i1 %51, label %52, label %40, !llvm.loop !45

52:                                               ; preds = %50
  %53 = sub nsw i32 0, %30
  br label %.loopexit

.loopexit:                                        ; preds = %41, %40, %35, %33, %._crit_edge52, %52, %26, %22
  %.036 = phi i32 [ %23, %22 ], [ %28, %26 ], [ %53, %52 ], [ 0, %._crit_edge52 ], [ 1, %33 ], [ -1, %35 ], [ %30, %41 ], [ 0, %40 ]
  ret i32 %.036
}